target datalayout = "e-m:e-p270:32:32-p271:32:32-p272:64:64-i64:64-i128:128-f80:128-n8:16:32:64-S128"
target triple = "x86_64-pc-linux-gnu"

%struct.slurm_submit_ops = type { ptr, ptr }
%struct.timeval = type { i64, i64 }
%struct.job_descriptor = type { ptr, ptr, ptr, ptr, i16, i32, i32, ptr, ptr, ptr, ptr, i64, i64, ptr, ptr, ptr, ptr, i16, ptr, ptr, i16, ptr, i16, i32, i32, i32, ptr, ptr, i64, i32, ptr, i64, ptr, %struct.slurm_hash_t, i32, ptr, ptr, ptr, i64, i64, i32, i32, ptr, i16, i32, ptr, ptr, i16, ptr, ptr, i16, ptr, ptr, ptr, i16, ptr, ptr, ptr, i32, i32, i16, i8, ptr, i16, i8, ptr, i16, ptr, i32, i32, ptr, i16, ptr, i16, ptr, i16, ptr, i16, ptr, ptr, %struct.slurm_hash_t, i16, i32, ptr, i32, ptr, i32, i32, i32, ptr, ptr, ptr, ptr, ptr, ptr, i32, i16, i16, i16, i16, ptr, i16, i32, i32, i32, i32, i16, i16, i16, i16, i16, i16, i16, i16, i16, i16, i16, i64, i32, ptr, i32, i16, ptr, ptr, ptr, ptr, ptr, i32, ptr, i16, ptr, ptr, i16 }
%struct.slurm_hash_t = type { i8, [32 x i8] }

@g_context_cnt = internal global i32 -1, align 4
@ops = internal global ptr null, align 8
@.str.7 = private unnamed_addr constant [32 x i8] c"%s: pthread_rwlock_unlock(): %m\00", align 1
@.str.8 = private unnamed_addr constant [32 x i8] c"%s: pthread_rwlock_rdlock(): %m\00", align 1
@__func__.job_submit_g_submit = private unnamed_addr constant [20 x i8] c"job_submit_g_submit\00", align 1
@context_lock = internal global { { i32, i32, i32, i32, i32, i32, i32, i32, i8, [7 x i8], i64, i32, [4 x i8] } } zeroinitializer, align 8

; Function Attrs: nounwind uwtable
define dso_local i32 @job_submit_g_submit(ptr noundef %0, i32 noundef %1, ptr noundef %2) #0 {
  %4 = alloca ptr, align 8
  %5 = alloca i32, align 4
  %6 = alloca ptr, align 8
  %7 = alloca %struct.timeval, align 8
  %8 = alloca %struct.timeval, align 8
  %9 = alloca [20 x i8], align 16
  %10 = alloca i64, align 8
  %11 = alloca i32, align 4
  %12 = alloca i32, align 4
  %13 = alloca i32, align 4
  %14 = alloca i32, align 4
  store ptr %0, ptr %4, align 8
  store i32 %1, ptr %5, align 4
  store ptr %2, ptr %6, align 8
  call void @llvm.lifetime.start.p0(i64 16, ptr %7) #7
  call void @llvm.lifetime.start.p0(i64 16, ptr %8) #7
  call void @llvm.lifetime.start.p0(i64 20, ptr %9) #7
  call void @llvm.memset.p0.i64(ptr align 16 %9, i8 0, i64 20, i1 false)
  call void @llvm.lifetime.start.p0(i64 8, ptr %10) #7
  call void @llvm.lifetime.start.p0(i64 4, ptr %11) #7
  call void @llvm.lifetime.start.p0(i64 4, ptr %12) #7
  store i32 0, ptr %12, align 4
  %15 = call i32 @gettimeofday(ptr noundef %7, ptr noundef null) #7
  %16 = load ptr, ptr %4, align 8
  %17 = getelementptr inbounds nuw %struct.job_descriptor, ptr %16, i32 0, i32 82
  store i32 -2, ptr %17, align 4
  br label %18

18:                                               ; preds = %3
  call void @llvm.lifetime.start.p0(i64 4, ptr %13) #7
  %19 = call i32 @pthread_rwlock_rdlock(ptr noundef @context_lock) #7
  store i32 %19, ptr %13, align 4
  %20 = load i32, ptr %13, align 4
  %21 = icmp ne i32 %20, 0
  br i1 %21, label %22, label %25

22:                                               ; preds = %18
  %23 = load i32, ptr %13, align 4
  %24 = call ptr @__errno_location() #8
  store i32 %23, ptr %24, align 4
  call void (ptr, ...) @fatal_abort(ptr noundef @.str.8, ptr noundef @__func__.job_submit_g_submit) #9
  unreachable

25:                                               ; preds = %18
  call void @llvm.lifetime.end.p0(i64 4, ptr %13) #7
  br label %26

26:                                               ; preds = %25
  br label %27

27:                                               ; preds = %26
  store i32 0, ptr %11, align 4
  br label %28

28:                                               ; preds = %48, %27
  %29 = load i32, ptr %11, align 4
  %30 = load i32, ptr @g_context_cnt, align 4
  %31 = icmp slt i32 %29, %30
  br i1 %31, label %32, label %35

32:                                               ; preds = %28
  %33 = load i32, ptr %12, align 4
  %34 = icmp eq i32 %33, 0
  br label %35

35:                                               ; preds = %32, %28
  %36 = phi i1 [ false, %28 ], [ %34, %32 ]
  br i1 %36, label %37, label %51

37:                                               ; preds = %35
  %38 = load ptr, ptr @ops, align 8
  %39 = load i32, ptr %11, align 4
  %40 = sext i32 %39 to i64
  %41 = getelementptr inbounds %struct.slurm_submit_ops, ptr %38, i64 %40
  %42 = getelementptr inbounds nuw %struct.slurm_submit_ops, ptr %41, i32 0, i32 0
  %43 = load ptr, ptr %42, align 8
  %44 = load ptr, ptr %4, align 8
  %45 = load i32, ptr %5, align 4
  %46 = load ptr, ptr %6, align 8
  %47 = call i32 %43(ptr noundef %44, i32 noundef %45, ptr noundef %46)
  store i32 %47, ptr %12, align 4
  br label %48

48:                                               ; preds = %37
  %49 = load i32, ptr %11, align 4
  %50 = add nsw i32 %49, 1
  store i32 %50, ptr %11, align 4
  br label %28, !llvm.loop !14

51:                                               ; preds = %35
  br label %52

52:                                               ; preds = %51
  call void @llvm.lifetime.start.p0(i64 4, ptr %14) #7
  %53 = call i32 @pthread_rwlock_unlock(ptr noundef @context_lock) #7
  store i32 %53, ptr %14, align 4
  %54 = load i32, ptr %14, align 4
  %55 = icmp ne i32 %54, 0
  br i1 %55, label %56, label %59

56:                                               ; preds = %52
  %57 = load i32, ptr %14, align 4
  %58 = call ptr @__errno_location() #8
  store i32 %57, ptr %58, align 4
  call void (ptr, ...) @fatal_abort(ptr noundef @.str.7, ptr noundef @__func__.job_submit_g_submit) #9
  unreachable

59:                                               ; preds = %52
  call void @llvm.lifetime.end.p0(i64 4, ptr %14) #7
  br label %60

60:                                               ; preds = %59
  br label %61

61:                                               ; preds = %60
  br label %62

62:                                               ; preds = %61
  %63 = call i32 @gettimeofday(ptr noundef %8, ptr noundef null) #7
  %64 = getelementptr inbounds [20 x i8], ptr %9, i64 0, i64 0
  call void @slurm_diff_tv_str(ptr noundef %7, ptr noundef %8, ptr noundef %64, i32 noundef 20, ptr noundef @__func__.job_submit_g_submit, i64 noundef 0, ptr noundef %10)
  br label %65

65:                                               ; preds = %62
  br label %66

66:                                               ; preds = %65
  %67 = load i32, ptr %12, align 4
  call void @llvm.lifetime.end.p0(i64 4, ptr %12) #7
  call void @llvm.lifetime.end.p0(i64 4, ptr %11) #7
  call void @llvm.lifetime.end.p0(i64 8, ptr %10) #7
  call void @llvm.lifetime.end.p0(i64 20, ptr %9) #7
  call void @llvm.lifetime.end.p0(i64 16, ptr %8) #7
  call void @llvm.lifetime.end.p0(i64 16, ptr %7) #7
  ret i32 %67
}