; Function Attrs: nounwind uwtable
define dso_local i32 @job_submit_g_submit(ptr noundef initializes((628, 632)) %0, i32 noundef %1, ptr noundef %2) local_unnamed_addr #0 {
  %4 = alloca %struct.timeval, align 8
  %5 = alloca %struct.timeval, align 8
  %6 = alloca [20 x i8], align 16
  %7 = alloca i64, align 8
  call void @llvm.lifetime.start.p0(i64 16, ptr nonnull %4) #9
  call void @llvm.lifetime.start.p0(i64 16, ptr nonnull %5) #9
  call void @llvm.lifetime.start.p0(i64 20, ptr nonnull %6) #9
  call void @llvm.memset.p0.i64(ptr noundef nonnull align 16 dereferenceable(20) %6, i8 0, i64 20, i1 false)
  call void @llvm.lifetime.start.p0(i64 8, ptr nonnull %7) #9
  %8 = call i32 @gettimeofday(ptr noundef nonnull %4, ptr noundef null) #9
  %9 = getelementptr inbounds nuw i8, ptr %0, i64 628
  store i32 -2, ptr %9, align 4
  %10 = tail call i32 @pthread_rwlock_rdlock(ptr noundef nonnull @context_lock) #9
  %.not = icmp eq i32 %10, 0
  br i1 %.not, label %.preheader, label %13

.preheader:                                       ; preds = %3
  %11 = load i32, ptr @g_context_cnt, align 4
  %12 = icmp sgt i32 %11, 0
  br i1 %12, label %.lr.ph, label %._crit_edge

13:                                               ; preds = %3
  %14 = tail call ptr @__errno_location() #10
  store i32 %10, ptr %14, align 4
  tail call void (ptr, ...) @fatal_abort(ptr noundef nonnull @.str.8, ptr noundef nonnull @__func__.job_submit_g_submit) #11
  unreachable

.lr.ph:                                           ; preds = %.preheader, %.lr.ph
  %indvars.iv = phi i64 [ %indvars.iv.next, %.lr.ph ], [ 0, %.preheader ]
  %15 = load ptr, ptr @ops, align 8
  %16 = getelementptr inbounds nuw %struct.slurm_submit_ops, ptr %15, i64 %indvars.iv
  %17 = load ptr, ptr %16, align 8
  %18 = tail call i32 %17(ptr noundef %0, i32 noundef %1, ptr noundef %2) #9
  %indvars.iv.next = add nuw nsw i64 %indvars.iv, 1
  %19 = load i32, ptr @g_context_cnt, align 4
  %20 = sext i32 %19 to i64
  %21 = icmp slt i64 %indvars.iv.next, %20
  %22 = icmp eq i32 %18, 0
  %23 = select i1 %21, i1 %22, i1 false
  br i1 %23, label %.lr.ph, label %._crit_edge, !llvm.loop !12

._crit_edge:                                      ; preds = %.lr.ph, %.preheader
  %.012.lcssa = phi i32 [ 0, %.preheader ], [ %18, %.lr.ph ]
  %24 = tail call i32 @pthread_rwlock_unlock(ptr noundef nonnull @context_lock) #9
  %.not15 = icmp eq i32 %24, 0
  br i1 %.not15, label %27, label %25

25:                                               ; preds = %._crit_edge
  %26 = tail call ptr @__errno_location() #10
  store i32 %24, ptr %26, align 4
  tail call void (ptr, ...) @fatal_abort(ptr noundef nonnull @.str.7, ptr noundef nonnull @__func__.job_submit_g_submit) #11
  unreachable

27:                                               ; preds = %._crit_edge
  %28 = call i32 @gettimeofday(ptr noundef nonnull %5, ptr noundef null) #9
  call void @slurm_diff_tv_str(ptr noundef nonnull %4, ptr noundef nonnull %5, ptr noundef nonnull %6, i32 noundef 20, ptr noundef nonnull @__func__.job_submit_g_submit, i64 noundef 0, ptr noundef nonnull %7) #9
  call void @llvm.lifetime.end.p0(i64 8, ptr nonnull %7) #9
  call void @llvm.lifetime.end.p0(i64 20, ptr nonnull %6) #9
  call void @llvm.lifetime.end.p0(i64 16, ptr nonnull %5) #9
  call void @llvm.lifetime.end.p0(i64 16, ptr nonnull %4) #9
  ret i32 %.012.lcssa
}